PRU Assembler Unix v2.3.3 Mon Mar 17 13:47:38 2025

Tools Copyright (c) 2012-2018 Texas Instruments Incorporated
src/pru1-servo.asm                                                   PAGE    1

       1; Raul Emlio Romero
       2;
       3; cd /sys/class/remoteproc/remoteproc1
       4; echo 'am335x-pru1-rc-servo-fw' > firmware
       5; echo 'start' > state
       6; echo 'stop' > state
       7; cd /sys/kernel/debug/remoteproc/remoteproc1
       8; sudo cat regs
       9;
      10; PRU definitions
      11
      12; pru1Control
      13  .asg 0x22000, PRU0_CTRL
      14  .asg 0x24000, PRU1_CTRL                               ; page 19
      15  .asg 0x28, CTPPR0                                     ; page 75
      16
      17; memory
      18  .asg 0x00000000, RAM0_ADDR                            ; local addr ram0. In linux space addr is 0x4a
      19  .asg 0x00002000, RAM1_ADDR                            ; local addr ram1. In linux space addr is 0x4a
      20  .asg 0x00010000, SHARED_ADDR                          ; local addr shared. In linux space addr is 0x
      21
      22  .asg 0x00, SHD_0                                      ; shared[0] flags linux
      23  .asg 0x04, SHD_1                                      ; shared[1] gpio_read get
      24  .asg 0x08, SHD_2                                      ; shared[2] gpio_read send rising detect
      25  .asg 0x0C, SHD_3                                      ; shared[3] gpio_write get-set
      26  .asg 0x10, SHD_4                                      ; shared[4] motor get-set
      27  .asg 0x14, SHD_5                                      ; shared[5] motor_A STEP_PERIOD_A
      28  .asg 0x18, SHD_6                                      ; shared[6] motor_B STEP_PERIOD_B
      29  .asg 0x1C, SHD_7                                      ; shared[7] motor_C STEP_PERIOD_C
      30  .asg 0x20, SHD_8                                      ; shared[8] motor_D STEP_PERIOD_D
      31  .asg 0x24, SHD_9                                      ; shared[9] send enable-dir MA y MB rising det
      32  .asg 0x0a, SHARED_MEM_SIZE                            ; 10 en decimal
      33  .asg 0x04, OFFSET_MEM                                 ;
      34
      35; gpio bank
      36  .asg 0x44e07000, GPIO0                                ; GPIO Bank 0, See the AM335x TRM
      37  .asg 0x481ac000, GPIO2                                ; GPIO Bank 2
      38
      39  .asg 0x190, GPIO_CLRDATAOUT                           ; for clearing the GPIO registers
      40  .asg 0x194, GPIO_SETDATAOUT                           ; for setting the GPIO registers
      41  .asg 0x13C, GPIO_DATAOUT                              ; for read-write the GPIO registers
      42  .asg 0x138, GPIO_DATAIN                               ; for reading the GPIO registers
      43  .asg 0x38,  GPIO_IRQSTATUS_SET_1                      ; habilita las interrupciones por set
      44  .asg 0x148, GPIO_RISINGDETECT                         ; habilita las interrupciones por flanco asc
      45  .asg 0x30,  GPIO_IRQSTATUS_1                          ; get-set irq
      46  .asg 0x150, GPIO_DEBOUNCENABLE                        ; antirebote enable register
      47  .asg 0x54,  GPIO_DEBOUNCINGTIME                       ; tiempo en us antirebote register
      48  .asg 0xD,  DEBOUNCETIME                               ; tiempo en us value
      49  .asg 0xF00, GPIO0_LEVELDETECT_MASK                    ; bits 8-11 bit22
      50  .asg 0x08800000, GPIO0_RISINGDETECT_MASK              ; bit23 y bit 27
      51  .asg 0x01, GPIO2_RISINGDETECT_MASK                    ; pin P8_18 GPIO2_1 flanco asc detect para fun
      52
      53  .asg 0x130, GPIO_CTRL                                 ; enable GPIO port
      54  .asg 0x00,  GPIO_CTRL_ENABLE                          ;
      55  .asg 0x134, GPIO_OE                                   ; set GPIO input - output
PRU Assembler Unix v2.3.3 Mon Mar 17 13:47:38 2025

Tools Copyright (c) 2012-2018 Texas Instruments Incorporated
src/pru1-servo.asm                                                   PAGE    2

      56  .asg 0xFC3C003F, GPIO2_OE_IN_OUT                      ; pines usados como salida bit6 a bit17 y bit2
      57  .asg 0x0CC00F00, GPIO0_OE_IN_OUT                      ; pines usados como entrada bits8-10, bits22-2
      58
      59; gpio_read
      60  ; Pins
      61  ; P8_35 gpio0[8] -> bit8 input_0  no hace falta hacer: config-pin P8_35 gpio_pd
      62  ; P8_33 gpio0[9] -> bit9 input_1  no hace falta hacer: config-pin P8_33 gpio_pd
      63  ; P8_31 gpio0[10]-> bit10 input_2 no hace falta hacer: config-pin P8_31 gpio_pd
      64  ; P8_32 gpio0[11]-> bit11 input_3 no hace falta hacer: config-pin P8_32 gpio_pd
      65
      66  ; MOTOR_A hardware pins
      67  .asg 22, INPUT_MA_DISABLE                             ; P8_19 gpio0[22]-> bit22 input_MA_E set disab
      68  .asg 23, INPUT_MA_TD                                  ; P8_13 gpio0[23]-> bit23 input_MA_D set toogl
      69  ; MOTOR_B hardware pins
      70  .asg 26, INPUT_MB_DISABLE                             ; P8_14 gpio0[26]-> bit26 input_MB_E set disab
      71  .asg 27, INPUT_MB_TD                                  ; P8_17 gpio0[27]-> bit27 input_MB_D set toogl
      72  .asg 1, INPUT_GPIO_READ_ASC                           ; P8_18 gpio2[1]-> bit1 input gpio read send r
      73
      74; gpio_write
      75  .asg  (1<<22),  GPIO_OUT_BASE                         ;
      76  ; Pins
      77  ; P8_27 gpio2[22]-> bit22 output_0 no hace falta hacer: config-pin P8_27 gpio
      78  ; P8_29 gpio2[23]-> bit23 output_1 no hace falta hacer: config-pin P8_29 gpio
      79  ; P8_28 gpio2[24]-> bit24 output_2 no hace falta hacer: config-pin P8_28 gpio
      80  ; P8_30 gpio2[25]-> bit25 output_3 no hace falta hacer: config-pin P8_30 gpio
      81
      82; motor
      83  ; Enable-Direction
      84  .asg (1<<6), GPIO_MOTOR_ENA_BASE                      ;
      85  .asg (1<<7), GPIO_MOTOR_DIR_BASE                      ;
      86
      87  ; Pins
      88  .asg 6, OUTPUT_MA_E                                   ; P8_45 gpio2[6] -> bit6 output_MA_E no hace f
      89  .asg 7, OUTPUT_MA_D                                   ; P8_46 gpio2[7] -> bit7 output_MA_D config-pi
      90
      91  .asg 8, OUTPUT_MB_E                                   ; P8_43 gpio2[8] -> bit8 output_MB_E config-pi
      92  .asg 9, OUTPUT_MB_D                                   ; P8_44 gpio2[9] -> bit9 output_MB_D config-pi
      93
      94  .asg 10, OUTPUT_MC_E                                  ; P8_41 gpio2[10]-> bit10 output_MC_E config-p
      95  .asg 11, OUTPUT_MC_D                                  ; P8_42 gpio2[11]-> bit11 output_MC_D config-p
      96
      97  .asg 12, OUTPUT_MD_E                                  ; P8_39 gpio2[12]-> bit12 output_MD_E config-p
      98  .asg 13, OUTPUT_MD_D                                  ; P8_40 gpio2[13]-> bit13 output_MD_D config-p
      99
     100  ; Step period (medio ciclo de la senial)
     101  .asg (1<<14), OUTPUT_MA_S                             ; P8_37 gpio2[14] output_MA_S no hace falta ha
     102  .asg (1<<15), OUTPUT_MB_S                             ; P8_38 gpio2[15] output_MB_S
     103  .asg (1<<16), OUTPUT_MC_S                             ; P8_36 gpio2[16] output_MC_S
     104  .asg (1<<17), OUTPUT_MD_S                             ; P8_34 gpio2[17] output_MD_S
     105
     106; functions flags
     107  .asg 0, GPIO_READ_FLAG                                ; shared[0] bit0
     108  .asg 1, GPIO_INSENDSTATE_FLAG                         ; shared[0] bit1
     109  .asg 2, GPIO_WRITESET_FLAG                            ; shared[0] bit2
     110  .asg 3, GPIO_WRITEGET_FLAG                            ; shared[0] bit3
PRU Assembler Unix v2.3.3 Mon Mar 17 13:47:38 2025

Tools Copyright (c) 2012-2018 Texas Instruments Incorporated
src/pru1-servo.asm                                                   PAGE    3

     111  .asg 4, MOTOR_CONFIGSET_FLAG                          ; shared[0] bit4
     112  .asg 5, MOTOR_CONFIGGET_FLAG                          ; shared[0] bit5
     113
     114  .asg 12, GPIO_READDATARDY_FLAG                        ; shared[1] bit12
     115  .asg 12, GPIO_INSENDSTATERISING_FLAG                  ; shared[2] bit12
     116  .asg 12, GPIO_WRITESETCOMP_FLAG                       ; shared[3] bit12
     117  .asg 12, GPIO_WRITEGETCOMP_FLAG                       ; shared[3] bit12
     118  .asg 12, MOTOR_CONFIGSETCOMP_FLAG                     ; shared[4] bit12
     119  .asg 12, MOTOR_CONFIGGETCOMP_FLAG                     ; shared[4] bit12
     120
     121
     122; disable-toogle direction to linux msg
     123  .asg 0, SHD_MA_DISABLE                                ; shared[10] set bit0 MA disable
     124  .asg 1, SHD_MA_TD                                     ; shared[10] set bit1 MA toggle dir
     125  .asg 2, SHD_MB_DISABLE                                ; shared[10] set bit2 MB disable
     126  .asg 3, SHD_MB_TD                                     ; shared[10] set bit3 MB toggle dir
     127
     128  .asg 32, PRU0_R31_VEC_VALID                           ; allows notification of program completion
     129  .asg 3,  PRU_EVTOUT_0                                 ; the event number that is sent back
     130
     131  .clink
     132  .global start
     133
     134 00000000                 start:
     135; Registro fijos
     136 00000000 000094240001D4    LDI32 r20, SHARED_ADDR                                ; shared_addr_base
     137  ; r10-> STEP_PERIOD_A
     138  ; r11-> STEP_PERIOD_B
     139  ; r12-> STEP_PERIOD_C
     140  ; r13-> STEP_PERIOD_D
     141  ; r21-r25-> DEBUG
     142
     143 00000008                 SETUP:
     144; borrado de momoria
     145 00000008 0000002EFF8180    ZERO  &r0, 4                                          ; zero put register
     146 0000000c 000081240000C1    LDI32 r1, 0                                           ; offset_mem
     147 00000014 000082240000C2    LDI32 r2, 0                                           ; Count mem
     148 0000001c                 mem_init:
     149 0000001c 000000E0E13480    SBBO  &r0, r20, r1, 4                                 ;
     150 00000020 0000000104E1E1    ADD   r1, r1, 4                                       ; cada posicion de memoria ocupa 4 bytes
     151 00000024 0000000101E2E2    ADD   r2, r2, 1                                       ; count++
     152 00000028 000000670AE2FD    QBGT  mem_init, r2, SHARED_MEM_SIZE                   ; qbgt myLabel, r3, r4. Branch if r4 > r3
     153
     154 0000002c                 gpio_config:
     155;GPIO0
     156 0000002c 7130802444E0C0    LDI32 r0, (GPIO0|GPIO_CTRL)                           ; load GPIO0 control register address
     157 00000034 000081240000C1    LDI32 r1, GPIO_CTRL_ENABLE                            ; load control enable value
     158 0000003c 000000E1002081    SBBO  &r1, r0, 0, 4                                   ; write enable value to GPIO0 control register
     159
     160 00000040 7134802444E0C0    LDI32 r0, (GPIO0|GPIO_OE)                             ; load GPIO0 output enable register address
     161 00000048 0F0081240CC0C1    LDI32 r1, GPIO0_OE_IN_OUT                             ; set GPIO0 as input
     162 00000050 000000E1002081    SBBO  &r1, r0, 0, 4                                   ; write input configuration to GPIO0
     163
     164  ; solo pines toggle configurados con flanco asc
     165 00000054 7148802444E0C0    LDI32 r0, (GPIO0|GPIO_RISINGDETECT)                   ; load addr for GPIO0
PRU Assembler Unix v2.3.3 Mon Mar 17 13:47:38 2025

Tools Copyright (c) 2012-2018 Texas Instruments Incorporated
src/pru1-servo.asm                                                   PAGE    4

     166 0000005c 000000F1002081    LBBO  &r1, r0, 0, 4                                   ; Load the values at r0 into r1.
     167 00000060 000081240880C1    LDI32 r1, GPIO0_RISINGDETECT_MASK                     ; input toggles bit23 y bit27
     168 00000068 000000E1002081    SBBO  &r1, r0, 0, 4                                   ; Load the values at r0 into r1.
     169
     170  ; enable irq set_1
     171 0000006c 7038802444E0C0    LDI32 r0, (GPIO0|GPIO_IRQSTATUS_SET_1)                ; load addr for GPIO0
     172 00000074 000000F1002081    LBBO  &r1, r0, 0, 4                                   ; Load the values at r0 into r1.
     173 00000078 000081240880C1    LDI32 r1, GPIO0_RISINGDETECT_MASK                     ; input toggles bit23 y bit27
     174 00000080 000000E1002081    SBBO  &r1, r0, 0, 4                                   ; Load the values at r0 into r1.
     175
     176;GPIO2
     177 00000084 C1308024481AC0    LDI32 r0, (GPIO2|GPIO_CTRL)                           ; load GPIO2 control register address
     178 0000008c 000081240000C1    LDI32 r1, GPIO_CTRL_ENABLE                            ; load control enable value
     179 00000094 000000E1002081    SBBO  &r1, r0, 0, 4                                   ; write enable value to GPIO2 control register
     180
     181 00000098 C1348024481AC0    LDI32 r0, (GPIO2|GPIO_OE)                             ; load GPIO2 output enable register address
     182 000000a0 003F8124FC3CC1    LDI32 r1, GPIO2_OE_IN_OUT                             ; set GPIO2 as output ojo aca tambien estamos 
     183 000000a8 000000E1002081    SBBO  &r1, r0, 0, 4                                   ; write output configuration to GPIO2
     184
     185  ; GPIO2_1 pin8.18 se configura como entrada
     186  ; solo un pin configurados con flanco asc
     187 000000ac C1488024481AC0    LDI32 r0, (GPIO2|GPIO_RISINGDETECT)                   ; load addr for GPIO2
     188 000000b4 000000F1002081    LBBO  &r1, r0, 0, 4                                   ; Load the values at r0 into r1.
     189 000000b8 000181240000C1    LDI32 r1, GPIO2_RISINGDETECT_MASK                     ; input bit1
     190 000000c0 000000E1002081    SBBO  &r1, r0, 0, 4                                   ; Load the values at r0 into r1.
     191
     192  ; enable irq set_1
     193 000000c4 C0388024481AC0    LDI32 r0, (GPIO2|GPIO_IRQSTATUS_SET_1)                ; load addr for GPIO2
     194 000000cc 000000F1002081    LBBO  &r1, r0, 0, 4                                   ; Load the values at r0 into r1.
     195 000000d0 000181240000C1    LDI32 r1, GPIO2_RISINGDETECT_MASK                     ; input bit1
     196 000000d8 000000E1002081    SBBO  &r1, r0, 0, 4                                   ; Load the values at r0 into r1.
     197
     198 000000dc C13C8024481AC0    LDI32 r0, (GPIO2|GPIO_DATAOUT)                        ; load GPIO2 output
     199 000000e4 0000002EFF8181    ZERO  &r1, 4                                          ;
     200 000000e8 000000E1002081    SBBO  &r1, r0, 0 , 4                                  ; Cargamos todas las salidas en cero
     201
     202; debug ---------------------------------------------------------------------------------------
     203; get flag function
     204 000000ec 000000F1003480    LBBO &r0, r20, SHD_0, 4                               ; load shared[0]
     205; set flag function probe
     206;  SET  r0, r0, 0                                        ; set flag gpio_read bit0
     207;  SET  r0, r0, 1                                        ; set flag gpio_write set  bit1
     208 000000f0 0000001F04E0E0    SET  r0, r0, 4                                         ; set flaf motor config set bit4
     209 000000f4 000000E1003480    SBBO  &r0, r20, SHD_0, 4                              ; set flag set in shared[0]
     210
     211; gpio read
     212;  LBBO  &r21, r20, SHD_1, 4                             ; valores de las entradas gpio_read bit0-bit3
     213; gpio write
     214;  LDI32 r22, 0xFF                                       ; debug-> Cargamos gpio_write state->1100 pin
     215;  SBBO  &r22, r20, SHD_2, 4                             ;
     216; motor
     217 000000f8 0FFF97240000D7    LDI32 r23, 0xFFF                                       ; direction-enable 11 11 11 11  motor->1111 (
     218 00000100 0FFF98240000D8    LDI32 r24, 0xFFF                                       ; Cargamos un STEP_PERIOD_A de prueba en deci
     219 00000108 00FF99240000D9    LDI32 r25, 0xFF                                        ; Cargamos un STEP_PERIOD_B de prueba
     220 00000110 0FFF9A240000DA    LDI32 r26, 0xFFF                                       ; Cargamos un STEP_PERIOD_C de prueba
PRU Assembler Unix v2.3.3 Mon Mar 17 13:47:38 2025

Tools Copyright (c) 2012-2018 Texas Instruments Incorporated
src/pru1-servo.asm                                                   PAGE    5

     221 00000118 00FF9B240000DB    LDI32 r27, 0xFF                                        ; Cargamos un STEP_PERIOD_D de prueba en deci
     222 00000120 000000E1103497    SBBO  &r23, r20, SHD_4, 4                              ; cargamos enable-dir
     223 00000124 000000E1143498    SBBO  &r24, r20, SHD_5, 4                              ; cargamos STEP_PERIOD_A
     224 00000128 000000E1183499    SBBO  &r25, r20, SHD_6, 4                              ; cargamos STEP_PERIOD_B
     225 0000012c 000000E11C349A    SBBO  &r26, r20, SHD_7, 4                              ; cargamos STEP_PERIOD_C
     226 00000130 000000E120349B    SBBO  &r27, r20, SHD_8, 4                              ; cargamos STEP_PERIOD_D
     227; debug ----------------------------------------------------------------------------------------
     228
     229 00000134                 MAIN_LOOP:
     230; get state gpio_read function flag
     231 00000134 000000F1003480    LBBO  &r0, r20, SHD_0, 4                              ; read shared[0]
     232 00000138 000000D100E037    QBBS  GPIO_READ, r0, GPIO_READ_FLAG                   ; jump is gpio_read_flag is set shared[0] bit0
     233 0000013c                 level_A:
     234 0000013c 000000F1003480    LBBO  &r0, r20, SHD_0, 4                              ; read shared[0]
     235 00000140 000000D101E042    QBBS  GPIO_INSENDSTATE, r0, GPIO_INSENDSTATE_FLAG     ; jump is gpio_send_state_flag is set shared[0
     236 00000144                 level_B:
     237; set state gpio_write function flag
     238 00000144 000000F1003480    LBBO  &r0, r20, SHD_0, 4                              ; read shared[0]
     239 00000148 000000D102E054    QBBS  GPIO_WRITE_SET, r0, GPIO_WRITESET_FLAG          ; jump is gpio write flag set state is set sha
     240 0000014c                 level_C:
     241; get state gpio_write get state
     242 0000014c 000000F1003480    LBBO  &r0, r20, SHD_0, 4                              ; read shared[0]
     243 00000150 000000D103E071    QBBS  GPIO_WRITE_GET, r0, GPIO_WRITEGET_FLAG          ; jum is gpio write flag get state is set shar
     244 00000154                 level_D:
     245; set state motor function flag
     246 00000154 000000F1003480    LBBO  &r0, r20, SHD_0, 4                              ; read shared[0]
     247 00000158 000000D104E07C    QBBS  MOTOR_CONFIG_SET, r0, MOTOR_CONFIGSET_FLAG      ; jump is motor flag config set is set shared[
     248 0000015c                 level_E:
     249; get state motor function flag
     250 0000015c 000000F1003480    LBBO  &r0, r20, SHD_0, 4                              ; read shared[0]
     251 00000160 000000D105E0AC    QBBS  MOTOR_CONFIG_GET,r0, MOTOR_CONFIGGET_FLAG       ; jump is motor flag config get is set bit5
     252 00000164                 level_F:
     253 00000164 C13C8024481AC0    LDI32 r0, (GPIO2|GPIO_DATAOUT)                        ; load addr for GPIO2 Set data r0
     254 0000016c 000000F1002081    LBBO  &r1, r0, 0, 4                                   ; load value into r1 r0 addr
     255 00000170 000000D106E1B5    QBBS  STEP_PERIOD_A, r1, OUTPUT_MA_E                  ; jump is output_MA_E is set bit6
     256 00000174 0000002EFF818A    ZERO  &r10, 4                                         ; borramos r10 STEP_PERIOD_A
     257 00000178 000000E114348A    SBBO  &r10, r20, SHD_5, 4                             ; borramos shared[5] STEP_PERIOD_A
     258 0000017c                 level_F1:
     259 0000017c 000000D108E1BE    QBBS  STEP_PERIOD_B, r1, OUTPUT_MB_E                  ; jump is output_MB_E is set bit8
     260 00000180 0000002EFF818B    ZERO  &r11, 4                                         ; borramos r11 STEP_PERIOD_B
     261 00000184 000000E118348B    SBBO  &r11, r20, SHD_6, 4                             ; borramos shared[6] STEP_PERIOD_B
     262 00000188                 level_F2:
     263 00000188 000000D10AE1C7    QBBS  STEP_PERIOD_C, r1, OUTPUT_MC_E                  ; jump is output_MC_E is set bit10
     264 0000018c 0000002EFF818C    ZERO  &r12, 4                                         ; borramos r12 STEP_PERIOD_C
     265 00000190 000000E11C348C    SBBO  &r12, r20, SHD_7, 4                             ; borramos shared[7] STEP_PERIOD_C
     266 00000194                 level_F3:
     267 00000194 000000D10CE1D0    QBBS  STEP_PERIOD_D, r1, OUTPUT_MD_E                  ; jump is output_MD_E is set bit12
     268 00000198 0000002EFF818D    ZERO  &r13, 4                                         ; borramos r13 STEP_PERIOD_D
     269 0000019c 000000E120348D    SBBO  &r13, r20, SHD_8, 4                             ; borramos shared[8] STEP_PERIOD_D
     270 000001a0                 level_G:
     271 000001a0 7138802444E0C0    LDI32 r0, (GPIO0|GPIO_DATAIN)                         ; load addr for GPIO0 Set data r0
     272 000001a8 000000F1002081    LBBO  &r1, r0, 0, 4                                   ;
     273 000001ac 000000D116E1D6    QBBS  DISABLE_MA, r1, INPUT_MA_DISABLE                ; Desabilita el motor_A si GPIO0_22 is set
     274  ; clr bit0
     275 000001b0 000000F1243480    LBBO  &r0, r20, SHD_9, 4                              ; shared[9]
PRU Assembler Unix v2.3.3 Mon Mar 17 13:47:38 2025

Tools Copyright (c) 2012-2018 Texas Instruments Incorporated
src/pru1-servo.asm                                                   PAGE    6

     276 000001b4 0000001D00E0E0    CLR   r0,r0, SHD_MA_DISABLE                           ; clr bit0
     277 000001b8 000000E1243480    SBBO  &r0, r20, SHD_9, 4                              ;
     278 000001bc                 level_G1:
     279 000001bc 7030802444E0C0    LDI32 r0, (GPIO0|GPIO_IRQSTATUS_1)                    ; load addr for GPIO0 Set data r0
     280 000001c4 000000F1002081    LBBO  &r1, r0, 0, 4                                   ;
     281 000001c8 000000D117E1D8    QBBS  TOGGLE_DIR_MA, r1, INPUT_MA_TD                  ; toggle direction el motor_MA si flanco GPIO0
     282  ; clr bit1
     283 000001cc 000000F1243480    LBBO  &r0, r20, SHD_9, 4                              ; shared[9]
     284 000001d0 0000001D01E0E0    CLR   r0,r0, SHD_MA_TD                                ; clr bit1
     285 000001d4 000000E1243480    SBBO  &r0, r20, SHD_9, 4                              ;
     286 000001d8                 level_H:
     287 000001d8 7138802444E0C0    LDI32 r0, (GPIO0|GPIO_DATAIN)                         ; load addr for GPIO0 Set data r0
     288 000001e0 000000F1002081    LBBO  &r1, r0, 0, 4                                   ;
     289 000001e4 000000D11AE1E1    QBBS  DISABLE_MB, r1, INPUT_MB_DISABLE                ; Desabilita el motor_MB si GPIO0_26 is set
     290  ; clr bit2
     291 000001e8 000000F1243480    LBBO  &r0, r20, SHD_9, 4                              ; shared[9]
     292 000001ec 0000001D02E0E0    CLR   r0,r0, SHD_MB_DISABLE                           ; clr bit2
     293 000001f0 000000E1243480    SBBO  &r0, r20, SHD_9, 4                              ;
     294 000001f4                 level_H1:
     295 000001f4 7030802444E0C0    LDI32 r0, (GPIO0|GPIO_IRQSTATUS_1)                    ; load addr for GPIO0 Set data r0
     296 000001fc 000000F1002081    LBBO  &r1, r0, 0, 4                                   ;
     297 00000200 000000D11BE1E4    QBBS  TOGGLE_DIR_MB, r1, INPUT_MB_TD                  ; toggle direction el motor_MB si flanco GPIO0
     298  ; clr bit3
     299 00000204 000000F1243480    LBBO  &r0, r20, SHD_9, 4                              ; shared[9]
     300 00000208 0000001D01E0E0    CLR   r0,r0, SHD_MA_TD                                ; clr bit3
     301 0000020c 000000E1243480    SBBO  &r0, r20, SHD_9, 4                              ;
     302 00000210                 level_I:
     303
     304 00000210 0000007F0000C9    QBA   MAIN_LOOP                                       ; program loop
     305
     306 00000214                 GPIO_READ:
     307; clr flag gpio_read
     308 00000214 000000F1003480    LBBO  &r0, r20, SHD_0, 4                              ; shared[0]
     309 00000218 0000001D00E0E0    CLR   r0,r0, GPIO_READ_FLAG                           ; bit0 flag gpio_read
     310 0000021c 000000E1003480    SBBO  &r0, r20, SHD_0, 4                              ;
     311; read GPIO IN
     312 00000220 7138802444E0C0    LDI32 r0, (GPIO0|GPIO_DATAIN)                         ; load addr for DATAIN
     313 00000228 000000F1002081    LBBO  &r1, r0, 0, 4                                   ; Load the values at r0 into r1.
     314; write GPIO IN DATA INTO SHARED[1]
     315 0000022c 0F0080240000C0    LDI32 r0, 0xF00                                       ; mascara desde bit8 a bit11 porque en el regi
     316 00000234 00000010E0E1E1    AND   r1, r1, r0                                      ;
     317 00000238 0000000B08E1E1    LSR   r1, r1, 8                                       ; se desplazan 8 posiciones para que los datos
     318; set flag data ready
     319 0000023c 0000001F0CE1E1    SET   r1, r1, GPIO_READDATARDY_FLAG                   ; shared[1] bit12-> flag data ready
     320 00000240 000000E1043481    SBBO  &r1, r20, SHD_1, 4                              ; Cargamos valores de las entradas gpio_read b
     321 00000244 0000007F0000BE    QBA   level_A                                         ;
     322
     323 00000248                 GPIO_INSENDSTATE:
     324; no clr flag shared[0]para que quede continuamente leyendo
     325; get irq status
     326 00000248 C0308024481AC0    LDI32 r0, (GPIO2|GPIO_IRQSTATUS_1)                    ; load addr for GPIO2 rising detect bit1 set d
     327 00000250 000000F1002081    LBBO  &r1, r0, 0, 4                                   ;
     328 00000254 000000D101E102    QBBS  level_A1, r1, INPUT_GPIO_READ_ASC               ; si se detecta flanco asc enviamos los estado
     329 00000258 0000007F0000BB    QBA   level_B                                         ;
     330 0000025c                 level_A1:
PRU Assembler Unix v2.3.3 Mon Mar 17 13:47:38 2025

Tools Copyright (c) 2012-2018 Texas Instruments Incorporated
src/pru1-servo.asm                                                   PAGE    7

     331; clear IRQ_GPIO_IRQSTATUS_1
     332 0000025c C0308024481AC0    LDI32 r0, (GPIO2|GPIO_IRQSTATUS_1)                    ; load addr for GPIO2
     333 00000264 000000F1002081    LBBO  &r1, r0, 0, 4                                   ;
     334 00000268 0000001F01E1E1    SET   r1, r1, INPUT_GPIO_READ_ASC                     ; bit1
     335 0000026c 000000E1002081    SBBO  &r1, r0, 0, 4                                   ; Load the values at r0 into r1.
     336; read GPIO IN
     337 00000270 7138802444E0C0    LDI32 r0, (GPIO0|GPIO_DATAIN)                         ; load addr for DATAIN
     338 00000278 000000F1002081    LBBO  &r1, r0, 0, 4                                   ; Load the values at r0 into r1.
     339; write GPIO IN DATA INTO SHARED[2]
     340 0000027c 0F0080240000C0    LDI32 r0, 0xF00                                       ; mascara desde bit8 a bit11 porque en el regi
     341 00000284 00000010E0E1E1    AND   r1, r1, r0                                      ;
     342 00000288 0000000B08E1E1    LSR   r1, r1, 8                                       ; se desplazan 8 posiciones para que los datos
     343; set flag rising detect
     344 0000028c 0000001F0CE1E1    SET   r1, r1, GPIO_INSENDSTATERISING_FLAG             ; shared[2] bit12-> flag rising detect
     345 00000290 000000E1083481    SBBO  &r1, r20, SHD_2, 4                              ; Cargamos valores de las entradas gpio_read b
     346 00000294 0000007F0000AC    QBA   level_B                                         ;
     347
     348 00000298                 GPIO_WRITE_SET:
     349; clr flag gpio_write
     350 00000298 000000F1003480    LBBO  &r0, r20, SHD_0, 4                              ; Shared[0]
     351 0000029c 0000001D02E0E0    CLR   r0,r0, GPIO_WRITESET_FLAG                       ; bit2 flag gpio_write set
     352 000002a0 000000E1003480    SBBO  &r0, r20, SHD_0, 4                              ;
     353; read gpio_output to set
     354 000002a4 000000F10C3480    LBBO  &r0, r20, SHD_3, 4                              ; read shared[3]
     355 000002a8 000000110FE0E1    AND   r1, r0, 0x0F                                    ; extrae los primeros 4 bits (0-3) en r1. Flag
     356 000002ac 00000011F0E0E2    AND   r2, r0, 0xF0                                    ; extrae los bits 4-7 en r2. Pin state
     357 000002b0 0000000B04E2E2    LSR   r2, r2, 4                                       ; desplaza los bits 4-7 a la posicion menos si
     358 000002b4 000083240000C3    LDI32 r3, 0                                           ; inicializa el contador de bits (0 a 3)
     359 000002bc 000084240040C4    LDI32 r4, GPIO_OUT_BASE                               ; direccion base GPIO_OUT_BASE
     360 000002c4                 check_bits_w:
     361 000002c4 0000001101E1E5    AND   r5, r1, 1                                       ; extrae el bit menos significativo de r1 (sta
     362 000002c8 000000D0E3E109    QBBS  gpio_write_out_funct, r1, r3                    ; qbbs myLabel r1, r3. Branch if( r1&(1<<r3) )
     363 000002cc                 level_B1:
     364 000002cc 0000000B01E2E2    LSR   r2, r2, 1                                       ; desplaza r2 a la derecha para procesar el si
     365 000002d0 0000000901E4E4    LSL   r4, r4, 1                                       ; desplaza hacia el proximo bit de GPIO_out1,.
     366 000002d4 0000000101E3E3    ADD   r3, r3, 1                                       ; count++
     367 000002d8 0000006704E3FB    QBGT  check_bits_w, r3, 4                             ; cuatro salidas. qbgt myLabel, r3, r4. Branch
     368; set flag data complete
     369 000002dc 0000002EFF8180    ZERO  &r0, 4                                          ; shared[3] erase
     370 000002e0 0000001F0CE0E0    SET   r0, r0, GPIO_WRITESETCOMP_FLAG                  ; shared[3] bit12-> flag write complete
     371 000002e4 000000E10C3480    SBBO  &r0, r20, SHD_3, 4                              ;
     372 000002e8 0000007F000099    QBA   level_C                                         ;
     373
     374 000002ec                 gpio_write_out_funct:
     375 000002ec 000000D100E502    QBBS  write_out_set, r5, 0                            ; jamp si bit0 de r5 es set
     376 000002f0 000000C900E505    QBBC  write_out_clr, r5, 0                            ; jamp si bit0 de r5 es clr
     377 000002f4                 write_out_set:
     378 000002f4 C1948624481AC6    LDI32 r6, (GPIO2|GPIO_SETDATAOUT)                     ; load addr for GPIO Set data r6
     379 000002fc 000000E1002684    SBBO  &r4, r6, 0, 4                                   ; write r4 to the r6 address valu
     380 00000300 0000007F0000F3    QBA   level_B1                                        ;
     381 00000304                 write_out_clr:
     382 00000304 C1908624481AC6    LDI32 r6, (GPIO2|GPIO_CLRDATAOUT)                     ; load addr for GPIO Clear data.
     383 0000030c 000000E1002684    SBBO  &r4, r6, 0, 4                                   ; write r4 to the r6 address
     384 00000310 0000007F0000EF    QBA   level_B1                                        ;
     385
PRU Assembler Unix v2.3.3 Mon Mar 17 13:47:38 2025

Tools Copyright (c) 2012-2018 Texas Instruments Incorporated
src/pru1-servo.asm                                                   PAGE    8

     386 00000314                 GPIO_WRITE_GET:
     387; clr flag gpio_read
     388 00000314 000000F1003480    LBBO  &r0, r20, SHD_0, 4                              ; shared[0]
     389 00000318 0000001D03E0E0    CLR   r0,r0, GPIO_WRITEGET_FLAG                       ; bit3 flag gpio_write get state
     390 0000031c 000000E1003480    SBBO  &r0, r20, SHD_0, 4                              ;
     391; read GPIO_DATAOUT
     392 00000320 C13C8024481AC0    LDI32 r0, (GPIO2|GPIO_DATAOUT)                        ; load addr for DATAOUT
     393 00000328 000000F1002081    LBBO  &r1, r0, 0, 4                                   ; Load the values at r0 into r1.
     394; write GPIO DATAOUT INTO SHARED[2]
     395 0000032c 0000802403C0C0    LDI32 r0, 0x03C00000                                  ; mascara desde bit22 a bit25 porque en el reg
     396 00000334 00000010E0E1E1    AND   r1, r1, r0                                      ;
     397 00000338 0000000B12E1E1    LSR   r1, r1, 18                                      ; se desplazan 18 posiciones para que los dato
     398; set flag data ready
     399 0000033c 0000001F0CE1E1    SET   r1, r1, GPIO_WRITEGETCOMP_FLAG                  ; shared[3] bit12-> flag gpio_write get comple
     400 00000340 000000E10C3481    SBBO  &r1, r20, SHD_3, 4                              ; Cargamos valores de gpio_out 22-25 en los bi
     401 00000344 0000007F000084    QBA   level_D                                         ;
     402
     403 00000348                 MOTOR_CONFIG_SET:
     404; Cargamos los step
     405 00000348 000000F114348A    LBBO  &r10, r20, SHD_5, 4                             ; read shared[5] STEP_PERIOD_A
     406 0000034c 000000F118348B    LBBO  &r11, r20, SHD_6, 4                             ; read shared[6] STEP_PERIOD_B
     407 00000350 000000F11C348C    LBBO  &r12, r20, SHD_7, 4                             ; read shared[7] STEP_PERIOD_C
     408 00000354 000000F120348D    LBBO  &r13, r20, SHD_8, 4                             ; read shared[8] STEP_PERIOD_C
     409; clr flag motor set
     410 00000358 000000F1003480    LBBO  &r0, r20, SHD_0, 4                              ; Shared[0]
     411 0000035c 0000001D04E0E0    CLR   r0,r0, MOTOR_CONFIGSET_FLAG                     ; bit4 flag motor
     412 00000360 000000E1003480    SBBO  &r0, r20, SHD_0, 4                              ;
     413; load data
     414 00000364 000000F1103480    LBBO  &r0, r20, SHD_4, 4                              ; read shared[4]
     415 00000368 000000110FE0E1    AND   r1, r0, 0x0F                                    ; extrae los primeros 4 bits (0-3) en r1. Flag
     416 0000036c 0FF082240000C2    LDI32 r2, 0xFF0                                       ; mascara bit 4-11
     417 00000374 00000010E2E0E2    AND   r2, r0, r2                                      ; extrae los bits 4-11 en r2. Pins enable-dir
     418 00000378 0000000B04E2E2    LSR   r2, r2, 4                                       ; desplaza los bits 4-11 a la posicion menos s
     419 0000037c 000083240000C3    LDI32 r3, 0                                           ; inicializa el contador de bits (0 a 3)
     420 00000384 004084240000C4    LDI32 r4, GPIO_MOTOR_ENA_BASE                         ; direccion base gpio MOTOR_ENA_Base
     421 0000038c 008085240000C5    LDI32 r5, GPIO_MOTOR_DIR_BASE                         ; direccion base gpio MOTOR_DIR_Base
     422 00000394                 check_bits_m:
     423 00000394 0000001103E2E6    AND   r6, r2, 0x03                                    ; extrae los dos primeros  bits. Bit0 -> Enabl
     424 00000398 000000D0E3E10A    QBBS  motor_config, r1, r3                            ; qbbs myLabel r2, r4. Branch if( r2&(1<<r4) )
     425 0000039c                 level_D1:
     426 0000039c 0000000B02E2E2    LSR   r2, r2, 2                                       ; desplaza r2 a la derecha para procesar los s
     427 000003a0 0000000902E4E4    LSL   r4, r4, 2                                       ; desplaza a la siguiente Ena
     428 000003a4 0000000902E5E5    LSL   r5, r5, 2                                       ; desplaza a la siguente Dir
     429 000003a8 0000000101E3E3    ADD   r3, r3, 1                                       ; count++
     430 000003ac 0000006704E3FA    QBGT  check_bits_m, r3, 4                             ; cuatro salidas. qbgt myLabel, r3, r4. Branch
     431; set flag motor config complete
     432 000003b0 0000002EFF8180    ZERO  &r0, 4                                          ; shared[4] erase
     433 000003b4 0000001F0CE0E0    SET   r0, r0, MOTOR_CONFIGSETCOMP_FLAG                ; shared[4] bit12-> flag motor config complete
     434 000003b8 000000E1103480    SBBO  &r0, r20, SHD_4, 4                              ;
     435 000003bc 0000007F000068    QBA   level_E                                         ;
     436
     437 000003c0                 motor_config:
     438 000003c0 000000D100E604    QBBS  enable_set, r6, 0                               ;
     439 000003c4 000000C900E607    QBBC  enable_clr, r6, 0                               ;
     440 000003c8                 level_D2:
PRU Assembler Unix v2.3.3 Mon Mar 17 13:47:38 2025

Tools Copyright (c) 2012-2018 Texas Instruments Incorporated
src/pru1-servo.asm                                                   PAGE    9

     441 000003c8 000000D101E60A    QBBS  dir_set, r6, 1                                  ;
     442 000003cc 000000C901E60D    QBBC  dir_clr, r6, 1                                  ;
     443 000003d0                 enable_set:
     444 000003d0 C1948724481AC7    LDI32 r7, (GPIO2|GPIO_SETDATAOUT)                     ; load addr for GPIO Set data r7
     445 000003d8 000000E1002784    SBBO  &r4, r7, 0, 4                                   ; write r4 to the r7 address value
     446 000003dc 0000007F0000FB    QBA   level_D2                                        ;
     447 000003e0                 enable_clr:
     448 000003e0 C1908724481AC7    LDI32 r7, (GPIO2|GPIO_CLRDATAOUT)                     ; load addr for GPIO Set data r7
     449 000003e8 000000E1002784    SBBO  &r4, r7, 0, 4                                   ; write r4 to the r6 address value
     450 000003ec 0000007F0000F7    QBA   level_D2                                        ;
     451 000003f0                 dir_set:
     452 000003f0 C1948724481AC7    LDI32 r7, (GPIO2|GPIO_SETDATAOUT)                     ; load addr for GPIO Set data r7
     453 000003f8 000000E1002785    SBBO  &r5, r7, 0, 4                                   ; write r5 to the r7 address value
     454 000003fc 0000007F0000E8    QBA   level_D1                                        ;
     455 00000400                 dir_clr:
     456 00000400 C1908724481AC7    LDI32 r7, (GPIO2|GPIO_CLRDATAOUT)                     ; load addr for GPIO Set data r7
     457 00000408 000000E1002785    SBBO  &r5, r7, 0, 4                                   ; write r5 to the r7 address value
     458 0000040c 0000007F0000E4    QBA   level_D1                                        ;
     459
     460 00000410                 MOTOR_CONFIG_GET:
     461; clr flag motor config get
     462 00000410 000000F1003480    LBBO  &r0, r20, SHD_0, 4                              ; shared[0]
     463 00000414 0000001D05E0E0    CLR   r0,r0, MOTOR_CONFIGGET_FLAG                     ; bit5 flag motor_config get state
     464 00000418 000000E1003480    SBBO  &r0, r20, SHD_0, 4                              ;
     465; read GPIO IN
     466 0000041c C13C8024481AC0    LDI32 r0, (GPIO2|GPIO_DATAOUT)                        ; load addr for DATAOUT
     467 00000424 000000F1002081    LBBO  &r1, r0, 0, 4                                   ; Load the values at r0 into r1.
     468; write GPIO IN DATA INTO SHARED[3]
     469 00000428 3FC080240000C0    LDI32 r0, 0x03FC0                                     ; mascara desde bit6-13 para sacar enable-dir 
     470 00000430 00000010E0E1E1    AND   r1, r1, r0                                      ;
     471 00000434 0000000B02E1E1    LSR   r1, r1, 2                                       ; se desplazan 2 posiciones para que los datos
     472; set flag data ready
     473 00000438 0000001F0CE1E1    SET   r1, r1, MOTOR_CONFIGGETCOMP_FLAG                ; shared[3] bit12-> flag motor_config get
     474 0000043c 000000E1103481    SBBO  &r1, r20, SHD_4, 4                              ; Cargamos valores enable-dir de todos los mot
     475 00000440 0000007F000049    QBA   level_F                                         ;
     476
     477 00000444                 STEP_PERIOD_A:
     478 00000444 0000000501EAEA    SUB   r10, r10, 1                                     ; se resta 1 a r10. r10 fue cargado cuando se 
     479 00000448 0000005100EA02    QBEQ  TOGGLE_PIN_A, r10, 0                            ; toggle pin step cuando la cuenta llega a 0
     480 0000044c 0000007F00004C    QBA   level_F1                                        ; sino volvemos al loop principal
     481 00000450                 TOGGLE_PIN_A:
     482 00000450 C13C8024481AC0    LDI32 r0, (GPIO2|GPIO_DATAOUT)                        ; load addr for GPIO2
     483 00000458 000000F1002081    LBBO  &r1, r0, 0, 4                                   ; Load the values at r0 into r1.
     484 0000045c 400082240000C2    LDI32 r2, OUTPUT_MA_S                                 ; GPIO2_14_MA_S
     485 00000464 00000014E2E1E1    XOR   r1, r1, r2                                      ; toggle GPIO2_14_MA_S
     486 00000468 000000E1002081    SBBO  &r1, r0, 0 , 4                                  ; actualizamos la salida GPIO2_14_MA_S
     487 0000046c 000000F114348A    LBBO  &r10, r20, SHD_5, 4                             ; cargamos nuevamente el valor de shared[5] pa
     488 00000470 0000007F000043    QBA   level_F1                                        ; volvemos al loop principal
     489
     490 00000474                 STEP_PERIOD_B:
     491 00000474 0000000501EBEB    SUB   r11, r11, 1                                     ; se resta 1 a r11. r11 fue cargado cuando se 
     492 00000478 0000005100EB02    QBEQ  TOGGLE_PIN_B, r11, 0                            ; toggle pin step cuando la cuenta llega a 0
     493 0000047c 0000007F000043    QBA   level_F2                                        ; sino volvemos al loop principal
     494 00000480                 TOGGLE_PIN_B:
     495 00000480 C13C8024481AC0    LDI32 r0, (GPIO2|GPIO_DATAOUT)                        ; load addr for GPIO2
PRU Assembler Unix v2.3.3 Mon Mar 17 13:47:38 2025

Tools Copyright (c) 2012-2018 Texas Instruments Incorporated
src/pru1-servo.asm                                                   PAGE   10

     496 00000488 000000F1002081    LBBO  &r1, r0, 0, 4                                   ; Load the values at r0 into r1.
     497 0000048c 800082240000C2    LDI32 r2, OUTPUT_MB_S                                 ; GPIO2_15_MB_S
     498 00000494 00000014E2E1E1    XOR   r1, r1, r2                                      ; toggle GPIO2_15_MB_S
     499 00000498 000000E1002081    SBBO  &r1, r0, 0 , 4                                  ; actualizamos la salida GPIO2_15_MB_S
     500 0000049c 000000F118348B    LBBO  &r11, r20, SHD_6, 4                             ; cargamos nuevamente el valor de shared[6] pa
     501 000004a0 0000007F00003A    QBA   level_F2                                        ; volvemos al loop principal
     502
     503 000004a4                 STEP_PERIOD_C:
     504 000004a4 0000000501ECEC    SUB   r12, r12, 1                                     ; se resta 1 a r12. r12 fue cargado cuando se 
     505 000004a8 0000005100EC02    QBEQ  TOGGLE_PIN_C, r12, 0                            ; toggle pin step cuando la cuenta llega a 0
     506 000004ac 0000007F00003A    QBA   level_F3                                        ; sino volvemos al loop principal
     507 000004b0                 TOGGLE_PIN_C:
     508 000004b0 C13C8024481AC0    LDI32 r0, (GPIO2|GPIO_DATAOUT)                        ; load addr for GPIO2
     509 000004b8 000000F1002081    LBBO  &r1, r0, 0, 4                                   ; Load the values at r0 into r1.
     510 000004bc 000082240001C2    LDI32 r2, OUTPUT_MC_S                                 ; GPIO2_16_MC_S
     511 000004c4 00000014E2E1E1    XOR   r1, r1, r2                                      ; toggle GPIO2_16_MC_S
     512 000004c8 000000E1002081    SBBO  &r1, r0, 0 , 4                                  ; actualizamos la salida GPIO2_16_MC_S
     513 000004cc 000000F11C348C    LBBO  &r12, r20, SHD_7, 4                             ; cargamos nuevamente el valor de shared[7] pa
     514 000004d0 0000007F000031    QBA   level_F3                                        ; volvemos al loop principal
     515
     516 000004d4                 STEP_PERIOD_D:
     517 000004d4 0000000501EDED    SUB   r13, r13, 1                                     ; se resta 1 a r13. r13 fue cargado cuando se 
     518 000004d8 0000005100ED02    QBEQ  TOGGLE_PIN_D, r13, 0                            ; toggle pin step cuando la cuenta llega a 0
     519 000004dc 0000007F000031    QBA   level_G                                         ; sino volvemos al loop principal
     520 000004e0                 TOGGLE_PIN_D:
     521 000004e0 C13C8024481AC0    LDI32 r0, (GPIO2|GPIO_DATAOUT)                        ; load addr for GPIO2
     522 000004e8 000000F1002081    LBBO  &r1, r0, 0, 4                                   ; Load the values at r0 into r1.
     523 000004ec 000082240002C2    LDI32 r2, OUTPUT_MD_S                                 ; GPIO2_17_MD_S
     524 000004f4 00000014E2E1E1    XOR   r1, r1, r2                                      ; toggle GPIO2_17_MD_S
     525 000004f8 000000E1002081    SBBO  &r1, r0, 0 , 4                                  ; actualizamos la salida GPIO2_17_MD_S
     526 000004fc 000000F120348D    LBBO  &r13, r20, SHD_8, 4                             ; cargamos nuevamente el valor de shared[8] pa
     527 00000500 0000007F000028    QBA   level_G                                         ; volvemos al loop principal
     528
     529 00000504                 DISABLE_MA:
     530 00000504 C1908024481AC0    LDI32 r0, (GPIO2|GPIO_CLRDATAOUT)                     ;
     531 0000050c 004081240000C1    LDI32 r1, GPIO_MOTOR_ENA_BASE                         ; direccion base gpio MOTOR_ENA_Base Motor_MA
     532 00000514 000000E1002081    SBBO  &r1, r0, 0, 4                                   ;
     533; set flag shared[9] bit0
     534 00000518 000000F1243480    LBBO  &r0, r20, SHD_9, 4                              ; Shared[9] avisamos a linux
     535 0000051c 0000001F00E0E0    SET   r0, r0, SHD_MA_DISABLE                          ; bit0 flag motor_MA disable
     536 00000520 000000E1243480    SBBO  &r0, r20, SHD_9, 4                              ;
     537 00000524 0000007F000026    QBA   level_G1                                        ;
     538
     539 00000528                 TOGGLE_DIR_MA:
     540; toggle drection pins
     541 00000528 C13C8024481AC0    LDI32 r0, (GPIO2|GPIO_DATAOUT)                        ; load addr for GPIO2
     542 00000530 000000F1002081    LBBO  &r1, r0, 0, 4                                   ; Load the values at r0 into r1.
     543 00000534 008082240000C2    LDI32 r2, GPIO_MOTOR_DIR_BASE                         ;
     544 0000053c 00000014E2E1E1    XOR   r1, r1, r2                                      ; toggle
     545 00000540 000000E1002081    SBBO  &r1, r0, 0 , 4                                  ; actualizamos dir
     546; clear IRQ_GPIO_IRQSTATUS_1
     547 00000544 7030802444E0C0    LDI32 r0, (GPIO0|GPIO_IRQSTATUS_1)                    ; load addr for GPIO2
     548 0000054c 000000F1002081    LBBO  &r1, r0, 0, 4                                   ;
     549 00000550 0000001F17E1E1    SET   r1, r1, INPUT_MA_TD                             ;
     550 00000554 000000E1002081    SBBO  &r1, r0, 0, 4                                   ; Load the values at r0 into r1.
PRU Assembler Unix v2.3.3 Mon Mar 17 13:47:38 2025

Tools Copyright (c) 2012-2018 Texas Instruments Incorporated
src/pru1-servo.asm                                                   PAGE   11

     551; set flag shared[9] bit1
     552 00000558 000000F1243480    LBBO  &r0, r20, SHD_9, 4                              ; Shared[9] avisamos a linux
     553 0000055c 0000001F01E0E0    SET   r0, r0, SHD_MA_TD                               ; bit1 flag direction motor_MA toggle
     554 00000560 000000E1243480    SBBO  &r0, r20, SHD_9, 4                              ;
     555 00000564 0000007F00001D    QBA   level_H                                         ; volvemos al loop principal
     556
     557 00000568                 DISABLE_MB:
     558 00000568 C1908024481AC0    LDI32 r0, (GPIO2|GPIO_CLRDATAOUT)                     ;
     559 00000570 004081240000C1    LDI32 r1, GPIO_MOTOR_ENA_BASE                         ; direccion gpio MOTOR_ENA_Base Motor_MB
     560 00000578 0000000902E1E1    LSL   r1, r1, 2                                       ; hay que moverse 2 posiciones Enable motor_MB
     561 0000057c 000000E1002081    SBBO  &r1, r0, 0, 4                                   ;
     562; set flag shared[8] bit2
     563 00000580 000000F1243480    LBBO  &r0, r20, SHD_9, 4                              ; Shared[9] avisamos a linux
     564 00000584 0000001F02E0E0    SET   r0, r0, SHD_MB_DISABLE                          ; bit2 flag motor_MB disable
     565 00000588 000000E1243480    SBBO  &r0, r20, SHD_9, 4                              ;
     566 0000058c 0000007F00001A    QBA   level_H1                                        ;
     567
     568 00000590                 TOGGLE_DIR_MB:
     569; toggle direction pins
     570 00000590 C13C8024481AC0    LDI32 r0, (GPIO2|GPIO_DATAOUT)                        ; load addr for GPIO2
     571 00000598 000000F1002081    LBBO  &r1, r0, 0, 4                                   ; Load the values at r0 into r1.
     572 0000059c 008082240000C2    LDI32 r2, GPIO_MOTOR_DIR_BASE                         ;
     573 000005a4 0000000902E2E2    LSL   r2, r2, 2                                       ;
     574 000005a8 00000014E2E1E1    XOR   r1, r1, r2                                      ; toggle
     575 000005ac 000000E1002081    SBBO  &r1, r0, 0 , 4                                  ; actualizamos la salida
     576; clear IRQ_GPIO_IRQSTATUS_1
     577 000005b0 7030802444E0C0    LDI32 r0, (GPIO0|GPIO_IRQSTATUS_1)                    ; load addr for GPIO2
     578 000005b8 000000F1002081    LBBO  &r1, r0, 0, 4                                   ;
     579 000005bc 0000001F1BE1E1    SET   r1, r1, INPUT_MB_TD                             ;
     580 000005c0 000000E1002081    SBBO  &r1, r0, 0, 4                                   ; Load the values at r0 into r1.
     581; set flag shared[9] bit3
     582 000005c4 000000F1243480    LBBO  &r0, r20, SHD_9, 4                              ; Shared[9] avisamos a linux
     583 000005c8 0000001F03E0E0    SET   r0, r0, SHD_MB_TD                               ; bit3 flag direction motor_MB toggle
     584 000005cc 000000E1243480    SBBO  &r0, r20, SHD_9, 4                              ;
     585 000005d0 0000007F000010    QBA   level_I                                         ; volvemos al loop principal
     586
     587 000005d4 00239F240000DF    LDI32   R31, (PRU0_R31_VEC_VALID|PRU_EVTOUT_0)        ;
     588 000005dc 0000002A000000    HALT                                                  ; halt the pru program

No Assembly Errors, No Assembly Warnings
